target datalayout = "e-m:e-p270:32:32-p271:32:32-p272:64:64-i64:64-i128:128-f80:128-n8:16:32:64-S128"
target triple = "x86_64-pc-linux-gnu"

%struct._object = type { %union.anon, ptr }
%union.anon = type { i64 }
%struct.PyVarObject = type { %struct._object, i64 }
%struct.array_state = type { ptr, ptr, ptr, ptr, ptr, ptr, ptr }
%struct.arraydescr = type { i8, i32, ptr, ptr, ptr, ptr, i32, i32 }
%struct.arrayobject = type { %struct.PyVarObject, ptr, i64, ptr, ptr, i64 }

@PyExc_TypeError = external global ptr, align 8
@.str.104 = private unnamed_addr constant [40 x i8] c"can only extend with array of same kind\00", align 1

; Function Attrs: inlinehint nounwind uwtable
define internal ptr @_Py_TYPE(ptr noundef %0) #3 {
  %2 = alloca ptr, align 8
  store ptr %0, ptr %2, align 8, !tbaa !3
  %3 = load ptr, ptr %2, align 8, !tbaa !3
  %4 = getelementptr inbounds nuw %struct._object, ptr %3, i32 0, i32 1
  %5 = load ptr, ptr %4, align 8, !tbaa !32
  ret ptr %5
}

; Function Attrs: inlinehint nounwind uwtable
define internal i32 @Py_IS_TYPE(ptr noundef %0, ptr noundef %1) #3 {
  %3 = alloca ptr, align 8
  %4 = alloca ptr, align 8
  store ptr %0, ptr %3, align 8, !tbaa !3
  store ptr %1, ptr %4, align 8, !tbaa !18
  %5 = load ptr, ptr %3, align 8, !tbaa !3
  %6 = call ptr @_Py_TYPE(ptr noundef %5)
  %7 = load ptr, ptr %4, align 8, !tbaa !18
  %8 = icmp eq ptr %6, %7
  %9 = zext i1 %8 to i32
  ret i32 %9
}

; Function Attrs: inlinehint nounwind uwtable
define internal i64 @Py_SIZE(ptr noundef %0) #3 {
  %2 = alloca ptr, align 8
  store ptr %0, ptr %2, align 8, !tbaa !3
  %3 = load ptr, ptr %2, align 8, !tbaa !3
  %4 = getelementptr inbounds nuw %struct.PyVarObject, ptr %3, i32 0, i32 1
  %5 = load i64, ptr %4, align 8, !tbaa !62
  ret i64 %5
}

; Function Attrs: inlinehint nounwind uwtable
define internal i32 @PyObject_TypeCheck(ptr noundef %0, ptr noundef %1) #3 {
  %3 = alloca ptr, align 8
  %4 = alloca ptr, align 8
  store ptr %0, ptr %3, align 8, !tbaa !3
  store ptr %1, ptr %4, align 8, !tbaa !18
  %5 = load ptr, ptr %3, align 8, !tbaa !3
  %6 = load ptr, ptr %4, align 8, !tbaa !18
  %7 = call i32 @Py_IS_TYPE(ptr noundef %5, ptr noundef %6)
  %8 = icmp ne i32 %7, 0
  br i1 %8, label %15, label %9

9:                                                ; preds = %2
  %10 = load ptr, ptr %3, align 8, !tbaa !3
  %11 = call ptr @_Py_TYPE(ptr noundef %10)
  %12 = load ptr, ptr %4, align 8, !tbaa !18
  %13 = call i32 @PyType_IsSubtype(ptr noundef %11, ptr noundef %12)
  %14 = icmp ne i32 %13, 0
  br label %15

15:                                               ; preds = %9, %2
  %16 = phi i1 [ true, %2 ], [ %14, %9 ]
  %17 = zext i1 %16 to i32
  ret i32 %17
}

; Function Attrs: nounwind uwtable
define internal i32 @array_do_extend(ptr noundef %0, ptr noundef %1, ptr noundef %2) #0 {
  %4 = alloca i32, align 4
  %5 = alloca ptr, align 8
  %6 = alloca ptr, align 8
  %7 = alloca ptr, align 8
  %8 = alloca i64, align 8
  %9 = alloca i64, align 8
  %10 = alloca i64, align 8
  %11 = alloca i32, align 4
  store ptr %0, ptr %5, align 8, !tbaa !8
  store ptr %1, ptr %6, align 8, !tbaa !68
  store ptr %2, ptr %7, align 8, !tbaa !3
  call void @llvm.lifetime.start.p0(i64 8, ptr %8) #8
  call void @llvm.lifetime.start.p0(i64 8, ptr %9) #8
  call void @llvm.lifetime.start.p0(i64 8, ptr %10) #8
  %12 = load ptr, ptr %7, align 8, !tbaa !3
  %13 = load ptr, ptr %5, align 8, !tbaa !8
  %14 = getelementptr inbounds nuw %struct.array_state, ptr %13, i32 0, i32 0
  %15 = load ptr, ptr %14, align 8, !tbaa !9
  %16 = call i32 @PyObject_TypeCheck(ptr noundef %12, ptr noundef %15)
  %17 = icmp ne i32 %16, 0
  br i1 %17, label %22, label %18

18:                                               ; preds = %3
  %19 = load ptr, ptr %6, align 8, !tbaa !68
  %20 = load ptr, ptr %7, align 8, !tbaa !3
  %21 = call i32 @array_iter_extend(ptr noundef %19, ptr noundef %20)
  store i32 %21, ptr %4, align 4
  store i32 1, ptr %11, align 4
  br label %97

22:                                               ; preds = %3
  %23 = load ptr, ptr %6, align 8, !tbaa !68
  %24 = getelementptr inbounds nuw %struct.arrayobject, ptr %23, i32 0, i32 3
  %25 = load ptr, ptr %24, align 8, !tbaa !99
  %26 = load ptr, ptr %7, align 8, !tbaa !3
  %27 = getelementptr inbounds nuw %struct.arrayobject, ptr %26, i32 0, i32 3
  %28 = load ptr, ptr %27, align 8, !tbaa !99
  %29 = icmp ne ptr %25, %28
  br i1 %29, label %30, label %32

30:                                               ; preds = %22
  %31 = load ptr, ptr @PyExc_TypeError, align 8, !tbaa !3
  call void @PyErr_SetString(ptr noundef %31, ptr noundef @.str.104)
  store i32 -1, ptr %4, align 4
  store i32 1, ptr %11, align 4
  br label %97

32:                                               ; preds = %22
  %33 = load ptr, ptr %6, align 8, !tbaa !68
  %34 = call i64 @Py_SIZE(ptr noundef %33)
  %35 = load ptr, ptr %7, align 8, !tbaa !3
  %36 = call i64 @Py_SIZE(ptr noundef %35)
  %37 = sub i64 9223372036854775807, %36
  %38 = icmp sgt i64 %34, %37
  br i1 %38, label %53, label %39

39:                                               ; preds = %32
  %40 = load ptr, ptr %6, align 8, !tbaa !68
  %41 = call i64 @Py_SIZE(ptr noundef %40)
  %42 = load ptr, ptr %7, align 8, !tbaa !3
  %43 = call i64 @Py_SIZE(ptr noundef %42)
  %44 = add i64 %41, %43
  %45 = load ptr, ptr %6, align 8, !tbaa !68
  %46 = getelementptr inbounds nuw %struct.arrayobject, ptr %45, i32 0, i32 3
  %47 = load ptr, ptr %46, align 8, !tbaa !99
  %48 = getelementptr inbounds nuw %struct.arraydescr, ptr %47, i32 0, i32 1
  %49 = load i32, ptr %48, align 4, !tbaa !52
  %50 = sext i32 %49 to i64
  %51 = sdiv i64 9223372036854775807, %50
  %52 = icmp sgt i64 %44, %51
  br i1 %52, label %53, label %55

53:                                               ; preds = %39, %32
  %54 = call ptr @PyErr_NoMemory()
  store i32 -1, ptr %4, align 4
  store i32 1, ptr %11, align 4
  br label %97

55:                                               ; preds = %39
  %56 = load ptr, ptr %6, align 8, !tbaa !68
  %57 = call i64 @Py_SIZE(ptr noundef %56)
  store i64 %57, ptr %9, align 8, !tbaa !21
  %58 = load ptr, ptr %7, align 8, !tbaa !3
  %59 = call i64 @Py_SIZE(ptr noundef %58)
  store i64 %59, ptr %10, align 8, !tbaa !21
  %60 = load i64, ptr %9, align 8, !tbaa !21
  %61 = load ptr, ptr %7, align 8, !tbaa !3
  %62 = call i64 @Py_SIZE(ptr noundef %61)
  %63 = add i64 %60, %62
  store i64 %63, ptr %8, align 8, !tbaa !21
  %64 = load ptr, ptr %6, align 8, !tbaa !68
  %65 = load i64, ptr %8, align 8, !tbaa !21
  %66 = call i32 @array_resize(ptr noundef %64, i64 noundef %65)
  %67 = icmp eq i32 %66, -1
  br i1 %67, label %68, label %69

68:                                               ; preds = %55
  store i32 -1, ptr %4, align 4
  store i32 1, ptr %11, align 4
  br label %97

69:                                               ; preds = %55
  %70 = load i64, ptr %10, align 8, !tbaa !21
  %71 = icmp sgt i64 %70, 0
  br i1 %71, label %72, label %96

72:                                               ; preds = %69
  %73 = load ptr, ptr %6, align 8, !tbaa !68
  %74 = getelementptr inbounds nuw %struct.arrayobject, ptr %73, i32 0, i32 1
  %75 = load ptr, ptr %74, align 8, !tbaa !70
  %76 = load i64, ptr %9, align 8, !tbaa !21
  %77 = load ptr, ptr %6, align 8, !tbaa !68
  %78 = getelementptr inbounds nuw %struct.arrayobject, ptr %77, i32 0, i32 3
  %79 = load ptr, ptr %78, align 8, !tbaa !99
  %80 = getelementptr inbounds nuw %struct.arraydescr, ptr %79, i32 0, i32 1
  %81 = load i32, ptr %80, align 4, !tbaa !52
  %82 = sext i32 %81 to i64
  %83 = mul i64 %76, %82
  %84 = getelementptr i8, ptr %75, i64 %83
  %85 = load ptr, ptr %7, align 8, !tbaa !3
  %86 = getelementptr inbounds nuw %struct.arrayobject, ptr %85, i32 0, i32 1
  %87 = load ptr, ptr %86, align 8, !tbaa !70
  %88 = load i64, ptr %10, align 8, !tbaa !21
  %89 = load ptr, ptr %7, align 8, !tbaa !3
  %90 = getelementptr inbounds nuw %struct.arrayobject, ptr %89, i32 0, i32 3
  %91 = load ptr, ptr %90, align 8, !tbaa !99
  %92 = getelementptr inbounds nuw %struct.arraydescr, ptr %91, i32 0, i32 1
  %93 = load i32, ptr %92, align 4, !tbaa !52
  %94 = sext i32 %93 to i64
  %95 = mul i64 %88, %94
  call void @llvm.memcpy.p0.p0.i64(ptr align 1 %84, ptr align 1 %87, i64 %95, i1 false)
  br label %96

96:                                               ; preds = %72, %69
  store i32 0, ptr %4, align 4
  store i32 1, ptr %11, align 4
  br label %97

97:                                               ; preds = %96, %68, %53, %30, %18
  call void @llvm.lifetime.end.p0(i64 8, ptr %10) #8
  call void @llvm.lifetime.end.p0(i64 8, ptr %9) #8
  call void @llvm.lifetime.end.p0(i64 8, ptr %8) #8
  %98 = load i32, ptr %4, align 4
  ret i32 %98
}