; Function Attrs: nounwind uwtable
define internal fastcc range(i32 -1, 1) i32 @array_do_extend(ptr %.0.val, ptr noundef %0, ptr noundef %1) unnamed_addr #0 {
  %3 = getelementptr i8, ptr %1, i64 8
  %.val32 = load ptr, ptr %3, align 8, !tbaa !19
  %.not.i = icmp eq ptr %.val32, %.0.val
  br i1 %.not.i, label %PyObject_TypeCheck.exit.thread, label %PyObject_TypeCheck.exit

PyObject_TypeCheck.exit:                          ; preds = %2
  %4 = tail call i32 @PyType_IsSubtype(ptr noundef %.val32, ptr noundef %.0.val) #11
  %.not2 = icmp eq i32 %4, 0
  br i1 %.not2, label %5, label %PyObject_TypeCheck.exit.thread

5:                                                ; preds = %PyObject_TypeCheck.exit
  %6 = tail call fastcc i32 @array_iter_extend(ptr noundef %0, ptr noundef nonnull %1)
  br label %48

PyObject_TypeCheck.exit.thread:                   ; preds = %2, %PyObject_TypeCheck.exit
  %7 = getelementptr inbounds nuw i8, ptr %0, i64 40
  %8 = load ptr, ptr %7, align 8, !tbaa !76
  %9 = getelementptr inbounds nuw i8, ptr %1, i64 40
  %10 = load ptr, ptr %9, align 8, !tbaa !76
  %.not25 = icmp eq ptr %8, %10
  br i1 %.not25, label %13, label %11

11:                                               ; preds = %PyObject_TypeCheck.exit.thread
  %12 = load ptr, ptr @PyExc_TypeError, align 8, !tbaa !18
  tail call void @PyErr_SetString(ptr noundef %12, ptr noundef nonnull @.str.104) #11
  br label %48

13:                                               ; preds = %PyObject_TypeCheck.exit.thread
  %14 = getelementptr i8, ptr %0, i64 16
  %.val31 = load i64, ptr %14, align 8, !tbaa !40
  %15 = getelementptr i8, ptr %1, i64 16
  %.val30 = load i64, ptr %15, align 8, !tbaa !40
  %16 = sub i64 9223372036854775807, %.val30
  %17 = icmp sgt i64 %.val31, %16
  br i1 %17, label %25, label %18

18:                                               ; preds = %13
  %19 = add i64 %.val30, %.val31
  %20 = getelementptr inbounds nuw i8, ptr %8, i64 4
  %21 = load i32, ptr %20, align 4, !tbaa !49
  %22 = sext i32 %21 to i64
  %23 = sdiv i64 9223372036854775807, %22
  %24 = icmp sgt i64 %19, %23
  br i1 %24, label %25, label %27

25:                                               ; preds = %18, %13
  %26 = tail call ptr @PyErr_NoMemory() #11
  br label %48

27:                                               ; preds = %18
  %28 = tail call fastcc i32 @array_resize(ptr noundef nonnull %0, i64 noundef %19)
  %29 = icmp eq i32 %28, -1
  br i1 %29, label %48, label %30

30:                                               ; preds = %27
  %31 = icmp sgt i64 %.val30, 0
  br i1 %31, label %32, label %48

32:                                               ; preds = %30
  %33 = getelementptr inbounds nuw i8, ptr %0, i64 24
  %34 = load ptr, ptr %33, align 8, !tbaa !53
  %35 = load ptr, ptr %7, align 8, !tbaa !76
  %36 = getelementptr inbounds nuw i8, ptr %35, i64 4
  %37 = load i32, ptr %36, align 4, !tbaa !49
  %38 = sext i32 %37 to i64
  %39 = mul i64 %.val31, %38
  %40 = getelementptr i8, ptr %34, i64 %39
  %41 = getelementptr inbounds nuw i8, ptr %1, i64 24
  %42 = load ptr, ptr %41, align 8, !tbaa !53
  %43 = load ptr, ptr %9, align 8, !tbaa !76
  %44 = getelementptr inbounds nuw i8, ptr %43, i64 4
  %45 = load i32, ptr %44, align 4, !tbaa !49
  %46 = sext i32 %45 to i64
  %47 = mul i64 %.val30, %46
  tail call void @llvm.memcpy.p0.p0.i64(ptr align 1 %40, ptr align 1 %42, i64 %47, i1 false)
  br label %48

48:                                               ; preds = %30, %32, %27, %25, %11, %5
  %.0 = phi i32 [ -1, %11 ], [ -1, %25 ], [ %6, %5 ], [ -1, %27 ], [ 0, %32 ], [ 0, %30 ]
  ret i32 %.0
}